target datalayout = "e-m:e-p270:32:32-p271:32:32-p272:64:64-i64:64-i128:128-f80:128-n8:16:32:64-S128"
target triple = "x86_64-pc-linux-gnu"

%struct.RelOptInfo = type { i32, i32, ptr, double, i8, i8, i8, ptr, ptr, ptr, ptr, ptr, ptr, ptr, ptr, ptr, ptr, i32, i32, i32, i16, i16, ptr, ptr, ptr, ptr, ptr, ptr, ptr, ptr, i32, double, double, ptr, ptr, ptr, i32, i32, i32, i32, i8, ptr, ptr, ptr, ptr, ptr, %struct.QualCost, i32, ptr, i8, i8, ptr, ptr, ptr, ptr, i32, ptr, i8, ptr, ptr, ptr, ptr, ptr, ptr }
%struct.QualCost = type { double, double }
%struct.RangeTblEntry = type { i32, ptr, ptr, i32, i32, i8, i8, i32, i32, ptr, ptr, i8, i32, i32, ptr, ptr, ptr, ptr, ptr, i8, ptr, ptr, ptr, i32, i8, ptr, ptr, ptr, ptr, double, ptr, i8, i8, ptr }
%struct.TableSampleClause = type { i32, i32, ptr, ptr }
%struct.FdwRoutine = type { i32, ptr, ptr, ptr, ptr, ptr, ptr, ptr, ptr, ptr, ptr, ptr, ptr, ptr, ptr, ptr, ptr, ptr, ptr, ptr, ptr, ptr, ptr, ptr, ptr, ptr, ptr, ptr, ptr, ptr, ptr, ptr, ptr, ptr, ptr, ptr, ptr, ptr, ptr, ptr, ptr, ptr, ptr, ptr, ptr, ptr }
%struct.PathTarget = type { i32, ptr, ptr, %struct.QualCost, i32, i32 }

; Function Attrs: nounwind uwtable
define internal void @set_rel_consider_parallel(ptr noundef %0, ptr noundef %1, ptr noundef %2) #0 {
  %4 = alloca ptr, align 8
  %5 = alloca ptr, align 8
  %6 = alloca ptr, align 8
  %7 = alloca i8, align 1
  %8 = alloca i32, align 4
  %9 = alloca ptr, align 8
  store ptr %0, ptr %4, align 8
  store ptr %1, ptr %5, align 8
  store ptr %2, ptr %6, align 8
  %10 = load ptr, ptr %6, align 8
  %11 = getelementptr inbounds nuw %struct.RangeTblEntry, ptr %10, i32 0, i32 3
  %12 = load i32, ptr %11, align 8
  switch i32 %12, label %109 [
    i32 0, label %13
    i32 1, label %77
    i32 2, label %88
    i32 3, label %89
    i32 4, label %97
    i32 5, label %98
    i32 6, label %106
    i32 7, label %107
    i32 8, label %109
    i32 9, label %108
  ]

13:                                               ; preds = %3
  %14 = load ptr, ptr %6, align 8
  %15 = getelementptr inbounds nuw %struct.RangeTblEntry, ptr %14, i32 0, i32 4
  %16 = load i32, ptr %15, align 4
  %17 = call signext i8 @get_rel_persistence(i32 noundef %16)
  %18 = sext i8 %17 to i32
  %19 = icmp eq i32 %18, 116
  br i1 %19, label %20, label %21

20:                                               ; preds = %13
  br label %128

21:                                               ; preds = %13
  %22 = load ptr, ptr %6, align 8
  %23 = getelementptr inbounds nuw %struct.RangeTblEntry, ptr %22, i32 0, i32 9
  %24 = load ptr, ptr %23, align 8
  %25 = icmp ne ptr %24, null
  br i1 %25, label %26, label %50

26:                                               ; preds = %21
  call void @llvm.lifetime.start.p0(i64 1, ptr %7) #8
  %27 = load ptr, ptr %6, align 8
  %28 = getelementptr inbounds nuw %struct.RangeTblEntry, ptr %27, i32 0, i32 9
  %29 = load ptr, ptr %28, align 8
  %30 = getelementptr inbounds nuw %struct.TableSampleClause, ptr %29, i32 0, i32 1
  %31 = load i32, ptr %30, align 4
  %32 = call signext i8 @func_parallel(i32 noundef %31)
  store i8 %32, ptr %7, align 1
  %33 = load i8, ptr %7, align 1
  %34 = sext i8 %33 to i32
  %35 = icmp ne i32 %34, 115
  br i1 %35, label %36, label %37

36:                                               ; preds = %26
  store i32 1, ptr %8, align 4
  br label %47

37:                                               ; preds = %26
  %38 = load ptr, ptr %4, align 8
  %39 = load ptr, ptr %6, align 8
  %40 = getelementptr inbounds nuw %struct.RangeTblEntry, ptr %39, i32 0, i32 9
  %41 = load ptr, ptr %40, align 8
  %42 = getelementptr inbounds nuw %struct.TableSampleClause, ptr %41, i32 0, i32 2
  %43 = load ptr, ptr %42, align 8
  %44 = call zeroext i1 @is_parallel_safe(ptr noundef %38, ptr noundef %43)
  br i1 %44, label %46, label %45

45:                                               ; preds = %37
  store i32 1, ptr %8, align 4
  br label %47

46:                                               ; preds = %37
  store i32 0, ptr %8, align 4
  br label %47

47:                                               ; preds = %46, %45, %36
  call void @llvm.lifetime.end.p0(i64 1, ptr %7) #8
  %48 = load i32, ptr %8, align 4
  switch i32 %48, label %129 [
    i32 0, label %49
    i32 1, label %128
  ]

49:                                               ; preds = %47
  br label %50

50:                                               ; preds = %49, %21
  %51 = load ptr, ptr %6, align 8
  %52 = getelementptr inbounds nuw %struct.RangeTblEntry, ptr %51, i32 0, i32 6
  %53 = load i8, ptr %52, align 1
  %54 = sext i8 %53 to i32
  %55 = icmp eq i32 %54, 102
  br i1 %55, label %56, label %76

56:                                               ; preds = %50
  %57 = load ptr, ptr %5, align 8
  %58 = getelementptr inbounds nuw %struct.RelOptInfo, ptr %57, i32 0, i32 41
  %59 = load ptr, ptr %58, align 8
  %60 = getelementptr inbounds nuw %struct.FdwRoutine, ptr %59, i32 0, i32 35
  %61 = load ptr, ptr %60, align 8
  %62 = icmp ne ptr %61, null
  br i1 %62, label %64, label %63

63:                                               ; preds = %56
  br label %128

64:                                               ; preds = %56
  %65 = load ptr, ptr %5, align 8
  %66 = getelementptr inbounds nuw %struct.RelOptInfo, ptr %65, i32 0, i32 41
  %67 = load ptr, ptr %66, align 8
  %68 = getelementptr inbounds nuw %struct.FdwRoutine, ptr %67, i32 0, i32 35
  %69 = load ptr, ptr %68, align 8
  %70 = load ptr, ptr %4, align 8
  %71 = load ptr, ptr %5, align 8
  %72 = load ptr, ptr %6, align 8
  %73 = call zeroext i1 %69(ptr noundef %70, ptr noundef %71, ptr noundef %72)
  br i1 %73, label %75, label %74

74:                                               ; preds = %64
  br label %128

75:                                               ; preds = %64
  br label %76

76:                                               ; preds = %75, %50
  br label %109

77:                                               ; preds = %3
  call void @llvm.lifetime.start.p0(i64 8, ptr %9) #8
  %78 = load ptr, ptr %6, align 8
  %79 = getelementptr inbounds nuw %struct.RangeTblEntry, ptr %78, i32 0, i32 10
  %80 = load ptr, ptr %79, align 8
  store ptr %80, ptr %9, align 8
  %81 = load ptr, ptr %9, align 8
  %82 = call zeroext i1 @limit_needed(ptr noundef %81)
  br i1 %82, label %83, label %84

83:                                               ; preds = %77
  store i32 1, ptr %8, align 4
  br label %85

84:                                               ; preds = %77
  store i32 0, ptr %8, align 4
  br label %85

85:                                               ; preds = %84, %83
  call void @llvm.lifetime.end.p0(i64 8, ptr %9) #8
  %86 = load i32, ptr %8, align 4
  switch i32 %86, label %129 [
    i32 0, label %87
    i32 1, label %128
  ]

87:                                               ; preds = %85
  br label %109

88:                                               ; preds = %3
  br label %128

89:                                               ; preds = %3
  %90 = load ptr, ptr %4, align 8
  %91 = load ptr, ptr %6, align 8
  %92 = getelementptr inbounds nuw %struct.RangeTblEntry, ptr %91, i32 0, i32 18
  %93 = load ptr, ptr %92, align 8
  %94 = call zeroext i1 @is_parallel_safe(ptr noundef %90, ptr noundef %93)
  br i1 %94, label %96, label %95

95:                                               ; preds = %89
  br label %128

96:                                               ; preds = %89
  br label %109

97:                                               ; preds = %3
  br label %128

98:                                               ; preds = %3
  %99 = load ptr, ptr %4, align 8
  %100 = load ptr, ptr %6, align 8
  %101 = getelementptr inbounds nuw %struct.RangeTblEntry, ptr %100, i32 0, i32 21
  %102 = load ptr, ptr %101, align 8
  %103 = call zeroext i1 @is_parallel_safe(ptr noundef %99, ptr noundef %102)
  br i1 %103, label %105, label %104

104:                                              ; preds = %98
  br label %128

105:                                              ; preds = %98
  br label %109

106:                                              ; preds = %3
  br label %128

107:                                              ; preds = %3
  br label %128

108:                                              ; preds = %3
  br label %128

109:                                              ; preds = %3, %3, %105, %96, %87, %76
  %110 = load ptr, ptr %4, align 8
  %111 = load ptr, ptr %5, align 8
  %112 = getelementptr inbounds nuw %struct.RelOptInfo, ptr %111, i32 0, i32 45
  %113 = load ptr, ptr %112, align 8
  %114 = call zeroext i1 @is_parallel_safe(ptr noundef %110, ptr noundef %113)
  br i1 %114, label %116, label %115

115:                                              ; preds = %109
  br label %128

116:                                              ; preds = %109
  %117 = load ptr, ptr %4, align 8
  %118 = load ptr, ptr %5, align 8
  %119 = getelementptr inbounds nuw %struct.RelOptInfo, ptr %118, i32 0, i32 7
  %120 = load ptr, ptr %119, align 8
  %121 = getelementptr inbounds nuw %struct.PathTarget, ptr %120, i32 0, i32 1
  %122 = load ptr, ptr %121, align 8
  %123 = call zeroext i1 @is_parallel_safe(ptr noundef %117, ptr noundef %122)
  br i1 %123, label %125, label %124

124:                                              ; preds = %116
  br label %128

125:                                              ; preds = %116
  %126 = load ptr, ptr %5, align 8
  %127 = getelementptr inbounds nuw %struct.RelOptInfo, ptr %126, i32 0, i32 6
  store i8 1, ptr %127, align 2
  br label %128

128:                                              ; preds = %125, %124, %115, %108, %107, %106, %104, %97, %95, %88, %85, %74, %63, %47, %20
  ret void

129:                                              ; preds = %85, %47
  unreachable
}