; Function Attrs: nounwind uwtable
define internal fastcc void @set_rel_consider_parallel(ptr noundef %0, ptr noundef %1, ptr noundef %2) unnamed_addr #0 {
  %4 = getelementptr inbounds nuw i8, ptr %2, i64 24
  %5 = load i32, ptr %4, align 8
  switch i32 %5, label %46 [
    i32 0, label %6
    i32 1, label %34
    i32 2, label %.thread
    i32 3, label %38
    i32 4, label %.thread
    i32 5, label %42
    i32 6, label %.thread
    i32 7, label %.thread
    i32 9, label %.thread
  ]

6:                                                ; preds = %3
  %7 = getelementptr inbounds nuw i8, ptr %2, i64 28
  %8 = load i32, ptr %7, align 4
  %9 = tail call signext i8 @get_rel_persistence(i32 noundef %8) #9
  %10 = icmp eq i8 %9, 116
  br i1 %10, label %.thread, label %11

11:                                               ; preds = %6
  %12 = getelementptr inbounds nuw i8, ptr %2, i64 48
  %13 = load ptr, ptr %12, align 8
  %.not = icmp eq ptr %13, null
  br i1 %.not, label %23, label %14

14:                                               ; preds = %11
  %15 = getelementptr inbounds nuw i8, ptr %13, i64 4
  %16 = load i32, ptr %15, align 4
  %17 = tail call signext i8 @func_parallel(i32 noundef %16) #9
  %.not27 = icmp eq i8 %17, 115
  br i1 %.not27, label %18, label %.thread

18:                                               ; preds = %14
  %19 = load ptr, ptr %12, align 8
  %20 = getelementptr inbounds nuw i8, ptr %19, i64 8
  %21 = load ptr, ptr %20, align 8
  %22 = tail call zeroext i1 @is_parallel_safe(ptr noundef %0, ptr noundef %21) #9
  br i1 %22, label %23, label %.thread

23:                                               ; preds = %18, %11
  %24 = getelementptr inbounds nuw i8, ptr %2, i64 33
  %25 = load i8, ptr %24, align 1
  %26 = icmp eq i8 %25, 102
  br i1 %26, label %27, label %46

27:                                               ; preds = %23
  %28 = getelementptr inbounds nuw i8, ptr %1, i64 264
  %29 = load ptr, ptr %28, align 8
  %30 = getelementptr inbounds nuw i8, ptr %29, i64 280
  %31 = load ptr, ptr %30, align 8
  %.not28 = icmp eq ptr %31, null
  br i1 %.not28, label %.thread, label %32

32:                                               ; preds = %27
  %33 = tail call zeroext i1 %31(ptr noundef %0, ptr noundef nonnull %1, ptr noundef nonnull %2) #9
  br i1 %33, label %46, label %.thread

34:                                               ; preds = %3
  %35 = getelementptr inbounds nuw i8, ptr %2, i64 56
  %36 = load ptr, ptr %35, align 8
  %37 = tail call zeroext i1 @limit_needed(ptr noundef %36) #9
  br i1 %37, label %.thread, label %46

38:                                               ; preds = %3
  %39 = getelementptr inbounds nuw i8, ptr %2, i64 112
  %40 = load ptr, ptr %39, align 8
  %41 = tail call zeroext i1 @is_parallel_safe(ptr noundef %0, ptr noundef %40) #9
  br i1 %41, label %46, label %.thread

42:                                               ; preds = %3
  %43 = getelementptr inbounds nuw i8, ptr %2, i64 136
  %44 = load ptr, ptr %43, align 8
  %45 = tail call zeroext i1 @is_parallel_safe(ptr noundef %0, ptr noundef %44) #9
  br i1 %45, label %46, label %.thread

46:                                               ; preds = %34, %42, %38, %23, %32, %3
  %47 = getelementptr inbounds nuw i8, ptr %1, i64 296
  %48 = load ptr, ptr %47, align 8
  %49 = tail call zeroext i1 @is_parallel_safe(ptr noundef %0, ptr noundef %48) #9
  br i1 %49, label %50, label %.thread

50:                                               ; preds = %46
  %51 = getelementptr inbounds nuw i8, ptr %1, i64 32
  %52 = load ptr, ptr %51, align 8
  %53 = getelementptr inbounds nuw i8, ptr %52, i64 8
  %54 = load ptr, ptr %53, align 8
  %55 = tail call zeroext i1 @is_parallel_safe(ptr noundef %0, ptr noundef %54) #9
  br i1 %55, label %56, label %.thread

56:                                               ; preds = %50
  %57 = getelementptr inbounds nuw i8, ptr %1, i64 26
  store i8 1, ptr %57, align 2
  br label %.thread

.thread:                                          ; preds = %18, %14, %34, %50, %46, %42, %38, %3, %3, %3, %3, %3, %32, %27, %6, %56
  ret void
}